; Function Attrs: mustprogress uwtable
define void @_ZNK6casadi8Sparsity12uni_coloringERKS0_x(ptr dead_on_unwind noalias writable sret(%"class.casadi::Sparsity") align 8 %0, ptr noundef nonnull align 8 dereferenceable(8) %1, ptr noundef nonnull align 8 dereferenceable(8) %2, i64 noundef %3) local_unnamed_addr #3 align 2 personality ptr @__gxx_personality_v0 {
  %5 = alloca %"class.casadi::Sparsity", align 8
  %6 = tail call noundef zeroext i1 @_ZNK6casadi12SharedObject7is_nullEv(ptr noundef nonnull align 8 dereferenceable(8) %2)
  %7 = tail call noundef ptr @_ZNK6casadi12SharedObjectptEv(ptr noundef nonnull align 8 dereferenceable(8) %1)
  br i1 %6, label %8, label %13

8:                                                ; preds = %4
  %9 = tail call noundef ptr @_ZNK6casadi12SharedObjectptEv(ptr noundef nonnull align 8 dereferenceable(8) %1), !noalias !137
  call void @_ZNK6casadi16SparsityInternal1TEv(ptr dead_on_unwind nonnull writable sret(%"class.casadi::Sparsity") align 8 %5, ptr noundef nonnull align 8 dereferenceable(56) %9)
  invoke void @_ZNK6casadi16SparsityInternal12uni_coloringERKNS_8SparsityEx(ptr dead_on_unwind writable sret(%"class.casadi::Sparsity") align 8 %0, ptr noundef nonnull align 8 dereferenceable(56) %7, ptr noundef nonnull align 8 dereferenceable(8) %5, i64 noundef %3)
          to label %10 unwind label %11

10:                                               ; preds = %8
  call void @_ZN6casadi12SharedObjectD2Ev(ptr noundef nonnull align 8 dereferenceable(8) %5) #24
  br label %14

11:                                               ; preds = %8
  %12 = landingpad { ptr, i32 }
          cleanup
  call void @_ZN6casadi12SharedObjectD2Ev(ptr noundef nonnull align 8 dereferenceable(8) %5) #24
  resume { ptr, i32 } %12

13:                                               ; preds = %4
  tail call void @_ZNK6casadi16SparsityInternal12uni_coloringERKNS_8SparsityEx(ptr dead_on_unwind writable sret(%"class.casadi::Sparsity") align 8 %0, ptr noundef nonnull align 8 dereferenceable(56) %7, ptr noundef nonnull align 8 dereferenceable(8) %2, i64 noundef %3)
  br label %14

14:                                               ; preds = %13, %10
  ret void
}